target datalayout = "e-m:e-p270:32:32-p271:32:32-p272:64:64-i64:64-i128:128-f80:128-n8:16:32:64-S128"
target triple = "x86_64-pc-linux-gnu"

%struct._lexbor_libxml2_bridge_parse_context = type { ptr, ptr, %struct._lexbor_libxml2_bridge_extracted_observations, ptr }
%struct._lexbor_libxml2_bridge_extracted_observations = type { i8, i8, i8 }
%struct.lexbor_array_obj_t = type { ptr, i64, i64, i64 }
%struct.lxb_html_tokenizer = type { ptr, ptr, ptr, ptr, ptr, ptr, ptr, ptr, ptr, ptr, ptr, ptr, ptr, ptr, ptr, i64, ptr, ptr, ptr, ptr, ptr, i64, i64, ptr, ptr, i64, i64, i32, i32, i8, i32, i32, i8, ptr, i64 }
%struct.lxb_html_tokenizer_error_t = type { ptr, i32 }
%struct.lxb_html_tree = type { ptr, ptr, ptr, ptr, ptr, ptr, ptr, %struct.lxb_html_tree_pending_table_t, ptr, i8, i8, i8, i8, i8, i8, ptr, ptr, ptr, i32, i64 }
%struct.lxb_html_tree_pending_table_t = type { ptr, i8 }
%struct.lxb_html_tree_error_t = type { i32, i64, i64, i64 }
%struct.lxb_html_parser_t = type { ptr, ptr, ptr, ptr, ptr, i32, i32, i64 }

; Function Attrs: nounwind uwtable
define internal ptr @lxb_html_parser_tree(ptr noundef %0) #0 {
  %2 = alloca ptr, align 8
  store ptr %0, ptr %2, align 8
  %3 = load ptr, ptr %2, align 8
  %4 = getelementptr inbounds %struct.lxb_html_parser_t, ptr %3, i32 0, i32 1
  %5 = load ptr, ptr %4, align 8
  ret ptr %5
}

; Function Attrs: nounwind uwtable
define internal ptr @lexbor_array_obj_get(ptr noundef %0, i64 noundef %1) #0 {
  %3 = alloca ptr, align 8
  %4 = alloca ptr, align 8
  %5 = alloca i64, align 8
  store ptr %0, ptr %4, align 8
  store i64 %1, ptr %5, align 8
  %6 = load i64, ptr %5, align 8
  %7 = load ptr, ptr %4, align 8
  %8 = getelementptr inbounds %struct.lexbor_array_obj_t, ptr %7, i32 0, i32 2
  %9 = load i64, ptr %8, align 8
  %10 = icmp uge i64 %6, %9
  br i1 %10, label %11, label %12

11:                                               ; preds = %2
  store ptr null, ptr %3, align 8
  br label %22

12:                                               ; preds = %2
  %13 = load ptr, ptr %4, align 8
  %14 = getelementptr inbounds %struct.lexbor_array_obj_t, ptr %13, i32 0, i32 0
  %15 = load ptr, ptr %14, align 8
  %16 = load i64, ptr %5, align 8
  %17 = load ptr, ptr %4, align 8
  %18 = getelementptr inbounds %struct.lexbor_array_obj_t, ptr %17, i32 0, i32 3
  %19 = load i64, ptr %18, align 8
  %20 = mul i64 %16, %19
  %21 = getelementptr inbounds i8, ptr %15, i64 %20
  store ptr %21, ptr %3, align 8
  br label %22

22:                                               ; preds = %12, %11
  %23 = load ptr, ptr %3, align 8
  ret ptr %23
}

; Function Attrs: nounwind uwtable
define internal ptr @lxb_html_parser_tokenizer(ptr noundef %0) #0 {
  %2 = alloca ptr, align 8
  store ptr %0, ptr %2, align 8
  %3 = load ptr, ptr %2, align 8
  %4 = getelementptr inbounds %struct.lxb_html_parser_t, ptr %3, i32 0, i32 0
  %5 = load ptr, ptr %4, align 8
  ret ptr %5
}

; Function Attrs: nounwind uwtable
define hidden void @lexbor_libxml2_bridge_report_errors(ptr noundef %0, ptr noundef %1, ptr noundef %2, i64 noundef %3, ptr noundef %4, ptr noundef %5) #0 {
  %7 = alloca ptr, align 8
  %8 = alloca ptr, align 8
  %9 = alloca ptr, align 8
  %10 = alloca i64, align 8
  %11 = alloca ptr, align 8
  %12 = alloca ptr, align 8
  %13 = alloca ptr, align 8
  %14 = alloca ptr, align 8
  %15 = alloca i64, align 8
  %16 = alloca ptr, align 8
  %17 = alloca ptr, align 8
  store ptr %0, ptr %7, align 8
  store ptr %1, ptr %8, align 8
  store ptr %2, ptr %9, align 8
  store i64 %3, ptr %10, align 8
  store ptr %4, ptr %11, align 8
  store ptr %5, ptr %12, align 8
  %18 = load ptr, ptr %8, align 8
  %19 = call ptr @lxb_html_parser_tokenizer(ptr noundef %18)
  %20 = getelementptr inbounds %struct.lxb_html_tokenizer, ptr %19, i32 0, i32 11
  %21 = load ptr, ptr %20, align 8
  store ptr %21, ptr %14, align 8
  %22 = load ptr, ptr %11, align 8
  %23 = load i64, ptr %22, align 8
  store i64 %23, ptr %15, align 8
  br label %24

24:                                               ; preds = %52, %6
  %25 = load ptr, ptr %14, align 8
  %26 = load i64, ptr %15, align 8
  %27 = call ptr @lexbor_array_obj_get(ptr noundef %25, i64 noundef %26)
  store ptr %27, ptr %13, align 8
  %28 = icmp ne ptr %27, null
  br i1 %28, label %29, label %55

29:                                               ; preds = %24
  %30 = load ptr, ptr %13, align 8
  store ptr %30, ptr %16, align 8
  %31 = load ptr, ptr %7, align 8
  %32 = getelementptr inbounds %struct._lexbor_libxml2_bridge_parse_context, ptr %31, i32 0, i32 0
  %33 = load ptr, ptr %32, align 8
  %34 = icmp ne ptr %33, null
  br i1 %34, label %35, label %52

35:                                               ; preds = %29
  %36 = load ptr, ptr %7, align 8
  %37 = getelementptr inbounds %struct._lexbor_libxml2_bridge_parse_context, ptr %36, i32 0, i32 0
  %38 = load ptr, ptr %37, align 8
  %39 = load ptr, ptr %7, align 8
  %40 = getelementptr inbounds %struct._lexbor_libxml2_bridge_parse_context, ptr %39, i32 0, i32 3
  %41 = load ptr, ptr %40, align 8
  %42 = load ptr, ptr %16, align 8
  %43 = load ptr, ptr %16, align 8
  %44 = getelementptr inbounds %struct.lxb_html_tokenizer_error_t, ptr %43, i32 0, i32 0
  %45 = load ptr, ptr %44, align 8
  %46 = load ptr, ptr %9, align 8
  %47 = ptrtoint ptr %45 to i64
  %48 = ptrtoint ptr %46 to i64
  %49 = sub i64 %47, %48
  %50 = load i64, ptr %10, align 8
  %51 = add i64 %49, %50
  call void %38(ptr noundef %41, ptr noundef %42, i64 noundef %51)
  br label %52

52:                                               ; preds = %35, %29
  %53 = load i64, ptr %15, align 8
  %54 = add i64 %53, 1
  store i64 %54, ptr %15, align 8
  br label %24

55:                                               ; preds = %24
  %56 = load i64, ptr %15, align 8
  %57 = load ptr, ptr %11, align 8
  store i64 %56, ptr %57, align 8
  %58 = load ptr, ptr %8, align 8
  %59 = call ptr @lxb_html_parser_tree(ptr noundef %58)
  %60 = getelementptr inbounds %struct.lxb_html_tree, ptr %59, i32 0, i32 8
  %61 = load ptr, ptr %60, align 8
  store ptr %61, ptr %14, align 8
  %62 = load ptr, ptr %12, align 8
  %63 = load i64, ptr %62, align 8
  store i64 %63, ptr %15, align 8
  br label %64

64:                                               ; preds = %94, %55
  %65 = load ptr, ptr %14, align 8
  %66 = load i64, ptr %15, align 8
  %67 = call ptr @lexbor_array_obj_get(ptr noundef %65, i64 noundef %66)
  store ptr %67, ptr %13, align 8
  %68 = icmp ne ptr %67, null
  br i1 %68, label %69, label %97

69:                                               ; preds = %64
  %70 = load ptr, ptr %13, align 8
  store ptr %70, ptr %17, align 8
  %71 = load ptr, ptr %7, align 8
  %72 = getelementptr inbounds %struct._lexbor_libxml2_bridge_parse_context, ptr %71, i32 0, i32 1
  %73 = load ptr, ptr %72, align 8
  %74 = icmp ne ptr %73, null
  br i1 %74, label %75, label %94

75:                                               ; preds = %69
  %76 = load ptr, ptr %7, align 8
  %77 = getelementptr inbounds %struct._lexbor_libxml2_bridge_parse_context, ptr %76, i32 0, i32 1
  %78 = load ptr, ptr %77, align 8
  %79 = load ptr, ptr %7, align 8
  %80 = getelementptr inbounds %struct._lexbor_libxml2_bridge_parse_context, ptr %79, i32 0, i32 3
  %81 = load ptr, ptr %80, align 8
  %82 = load ptr, ptr %17, align 8
  %83 = load ptr, ptr %17, align 8
  %84 = getelementptr inbounds %struct.lxb_html_tree_error_t, ptr %83, i32 0, i32 1
  %85 = load i64, ptr %84, align 8
  %86 = add i64 %85, 1
  %87 = load ptr, ptr %17, align 8
  %88 = getelementptr inbounds %struct.lxb_html_tree_error_t, ptr %87, i32 0, i32 2
  %89 = load i64, ptr %88, align 8
  %90 = add i64 %89, 1
  %91 = load ptr, ptr %17, align 8
  %92 = getelementptr inbounds %struct.lxb_html_tree_error_t, ptr %91, i32 0, i32 3
  %93 = load i64, ptr %92, align 8
  call void %78(ptr noundef %81, ptr noundef %82, i64 noundef %86, i64 noundef %90, i64 noundef %93)
  br label %94

94:                                               ; preds = %75, %69
  %95 = load i64, ptr %15, align 8
  %96 = add i64 %95, 1
  store i64 %96, ptr %15, align 8
  br label %64

97:                                               ; preds = %64
  %98 = load i64, ptr %15, align 8
  %99 = load ptr, ptr %12, align 8
  store i64 %98, ptr %99, align 8
  ret void
}