; Function Attrs: nounwind uwtable
define hidden void @lexbor_libxml2_bridge_report_errors(ptr nocapture noundef readonly %0, ptr nocapture noundef readonly %1, ptr noundef %2, i64 noundef %3, ptr nocapture noundef %4, ptr nocapture noundef %5) local_unnamed_addr #2 {
  %.val = load ptr, ptr %1, align 8
  %7 = getelementptr inbounds i8, ptr %.val, i64 88
  %8 = load ptr, ptr %7, align 8
  %9 = load i64, ptr %4, align 8
  %10 = getelementptr inbounds i8, ptr %8, i64 16
  %11 = load i64, ptr %10, align 8
  %.not.i44 = icmp ugt i64 %11, %9
  br i1 %.not.i44, label %lexbor_array_obj_get.exit.lr.ph, label %lexbor_array_obj_get.exit.thread

lexbor_array_obj_get.exit.lr.ph:                  ; preds = %6
  %12 = getelementptr inbounds i8, ptr %8, i64 24
  %13 = getelementptr inbounds i8, ptr %0, i64 24
  %14 = ptrtoint ptr %2 to i64
  %15 = sub i64 %3, %14
  br label %lexbor_array_obj_get.exit

lexbor_array_obj_get.exit:                        ; preds = %lexbor_array_obj_get.exit.lr.ph, %28
  %16 = phi i64 [ %11, %lexbor_array_obj_get.exit.lr.ph ], [ %29, %28 ]
  %.045 = phi i64 [ %9, %lexbor_array_obj_get.exit.lr.ph ], [ %30, %28 ]
  %17 = load ptr, ptr %8, align 8
  %18 = load i64, ptr %12, align 8
  %19 = mul i64 %18, %.045
  %20 = getelementptr inbounds i8, ptr %17, i64 %19
  %.not = icmp eq ptr %17, null
  br i1 %.not, label %lexbor_array_obj_get.exit.thread, label %21

21:                                               ; preds = %lexbor_array_obj_get.exit
  %22 = load ptr, ptr %0, align 8
  %.not35 = icmp eq ptr %22, null
  br i1 %.not35, label %28, label %23

23:                                               ; preds = %21
  %24 = load ptr, ptr %13, align 8
  %25 = load ptr, ptr %20, align 8
  %26 = ptrtoint ptr %25 to i64
  %27 = add i64 %15, %26
  tail call void %22(ptr noundef %24, ptr noundef nonnull %20, i64 noundef %27) #8
  %.pre = load i64, ptr %10, align 8
  br label %28

28:                                               ; preds = %23, %21
  %29 = phi i64 [ %.pre, %23 ], [ %16, %21 ]
  %30 = add nuw i64 %.045, 1
  %.not.i = icmp ugt i64 %29, %30
  br i1 %.not.i, label %lexbor_array_obj_get.exit, label %lexbor_array_obj_get.exit.thread

lexbor_array_obj_get.exit.thread:                 ; preds = %lexbor_array_obj_get.exit, %28, %6
  %.0.lcssa = phi i64 [ %9, %6 ], [ %30, %28 ], [ %.045, %lexbor_array_obj_get.exit ]
  store i64 %.0.lcssa, ptr %4, align 8
  %31 = getelementptr i8, ptr %1, i64 8
  %.val36 = load ptr, ptr %31, align 8
  %32 = getelementptr inbounds i8, ptr %.val36, i64 72
  %33 = load ptr, ptr %32, align 8
  %34 = load i64, ptr %5, align 8
  %35 = getelementptr inbounds i8, ptr %33, i64 16
  %36 = load i64, ptr %35, align 8
  %.not.i3747 = icmp ugt i64 %36, %34
  br i1 %.not.i3747, label %lexbor_array_obj_get.exit39.lr.ph, label %lexbor_array_obj_get.exit39.thread

lexbor_array_obj_get.exit39.lr.ph:                ; preds = %lexbor_array_obj_get.exit.thread
  %37 = getelementptr inbounds i8, ptr %33, i64 24
  %38 = getelementptr inbounds i8, ptr %0, i64 8
  %39 = getelementptr inbounds i8, ptr %0, i64 24
  br label %lexbor_array_obj_get.exit39

lexbor_array_obj_get.exit39:                      ; preds = %lexbor_array_obj_get.exit39.lr.ph, %57
  %40 = phi i64 [ %36, %lexbor_array_obj_get.exit39.lr.ph ], [ %58, %57 ]
  %.148 = phi i64 [ %34, %lexbor_array_obj_get.exit39.lr.ph ], [ %59, %57 ]
  %41 = load ptr, ptr %33, align 8
  %42 = load i64, ptr %37, align 8
  %43 = mul i64 %42, %.148
  %44 = getelementptr inbounds i8, ptr %41, i64 %43
  %.not33 = icmp eq ptr %41, null
  br i1 %.not33, label %lexbor_array_obj_get.exit39.thread, label %45

45:                                               ; preds = %lexbor_array_obj_get.exit39
  %46 = load ptr, ptr %38, align 8
  %.not34 = icmp eq ptr %46, null
  br i1 %.not34, label %57, label %47

47:                                               ; preds = %45
  %48 = load ptr, ptr %39, align 8
  %49 = getelementptr inbounds i8, ptr %44, i64 8
  %50 = load i64, ptr %49, align 8
  %51 = add i64 %50, 1
  %52 = getelementptr inbounds i8, ptr %44, i64 16
  %53 = load i64, ptr %52, align 8
  %54 = add i64 %53, 1
  %55 = getelementptr inbounds i8, ptr %44, i64 24
  %56 = load i64, ptr %55, align 8
  tail call void %46(ptr noundef %48, ptr noundef nonnull %44, i64 noundef %51, i64 noundef %54, i64 noundef %56) #8
  %.pre51 = load i64, ptr %35, align 8
  br label %57

57:                                               ; preds = %47, %45
  %58 = phi i64 [ %.pre51, %47 ], [ %40, %45 ]
  %59 = add nuw i64 %.148, 1
  %.not.i37 = icmp ugt i64 %58, %59
  br i1 %.not.i37, label %lexbor_array_obj_get.exit39, label %lexbor_array_obj_get.exit39.thread

lexbor_array_obj_get.exit39.thread:               ; preds = %lexbor_array_obj_get.exit39, %57, %lexbor_array_obj_get.exit.thread
  %.1.lcssa = phi i64 [ %34, %lexbor_array_obj_get.exit.thread ], [ %59, %57 ], [ %.148, %lexbor_array_obj_get.exit39 ]
  store i64 %.1.lcssa, ptr %5, align 8
  ret void
}